target datalayout = "e-m:e-p270:32:32-p271:32:32-p272:64:64-i64:64-i128:128-f80:128-n8:16:32:64-S128"
target triple = "x86_64-pc-linux-gnu"

%struct.H5O_link_t = type { i32, i8, i64, i32, ptr, %union.anon }
%union.anon = type { %struct.H5O_link_ud_t }
%struct.H5O_link_ud_t = type { ptr, i64 }
%struct.H5G_iter_lkp_t = type { ptr, ptr, ptr }

@H5G_init_g = external global i8, align 1
@H5_libterm_g = external global i8, align 1
@.str = private unnamed_addr constant [104 x i8] c"generated/home/dtcxzyw/WorkSpace/Projects/compilers/llvm-opt-benchmark/bench/hdf5/hdf5/src/H5Gcompact.c\00", align 1
@H5E_SYM_g = external global i64, align 8
@H5E_CANTCOPY_g = external global i64, align 8
@.str.8 = private unnamed_addr constant [24 x i8] c"can't copy link message\00", align 1
@__func__.H5G__compact_lookup_cb = private unnamed_addr constant [23 x i8] c"H5G__compact_lookup_cb\00", align 1

; Function Attrs: nounwind uwtable
define internal i32 @H5G__compact_lookup_cb(ptr noundef %0, i32 noundef %1, ptr noundef %2) #0 {
  %4 = alloca ptr, align 8
  %5 = alloca i32, align 4
  %6 = alloca ptr, align 8
  %7 = alloca ptr, align 8
  %8 = alloca ptr, align 8
  %9 = alloca i32, align 4
  %10 = alloca i8, align 1
  store ptr %0, ptr %4, align 8, !tbaa !30
  store i32 %1, ptr %5, align 4, !tbaa !10
  store ptr %2, ptr %6, align 8, !tbaa !30
  call void @llvm.lifetime.start.p0(i64 8, ptr %7) #8
  %11 = load ptr, ptr %4, align 8, !tbaa !30
  store ptr %11, ptr %7, align 8, !tbaa !8
  call void @llvm.lifetime.start.p0(i64 8, ptr %8) #8
  %12 = load ptr, ptr %6, align 8, !tbaa !30
  store ptr %12, ptr %8, align 8, !tbaa !30
  call void @llvm.lifetime.start.p0(i64 4, ptr %9) #8
  store i32 0, ptr %9, align 4, !tbaa !10
  call void @llvm.lifetime.start.p0(i64 1, ptr %10) #8
  store i8 0, ptr %10, align 1, !tbaa !12
  %13 = load i8, ptr @H5G_init_g, align 1, !tbaa !12, !range !14, !noundef !15
  %14 = trunc i8 %13 to i1
  br i1 %14, label %19, label %15

15:                                               ; preds = %3
  %16 = load i8, ptr @H5_libterm_g, align 1, !tbaa !12, !range !14, !noundef !15
  %17 = trunc i8 %16 to i1
  %18 = xor i1 %17, true
  br label %19

19:                                               ; preds = %15, %3
  %20 = phi i1 [ true, %3 ], [ %18, %15 ]
  %21 = xor i1 %20, true
  %22 = xor i1 %21, true
  %23 = zext i1 %22 to i32
  %24 = sext i32 %23 to i64
  %25 = call i64 @llvm.expect.i64(i64 %24, i64 1)
  %26 = icmp ne i64 %25, 0
  br i1 %26, label %27, label %77

27:                                               ; preds = %19
  %28 = load ptr, ptr %7, align 8, !tbaa !8
  %29 = getelementptr inbounds nuw %struct.H5O_link_t, ptr %28, i32 0, i32 4
  %30 = load ptr, ptr %29, align 8, !tbaa !27
  %31 = load ptr, ptr %8, align 8, !tbaa !30
  %32 = getelementptr inbounds nuw %struct.H5G_iter_lkp_t, ptr %31, i32 0, i32 0
  %33 = load ptr, ptr %32, align 8, !tbaa !49
  %34 = call i32 @strcmp(ptr noundef %30, ptr noundef %33) #9
  %35 = icmp eq i32 %34, 0
  br i1 %35, label %36, label %75

36:                                               ; preds = %27
  %37 = load ptr, ptr %8, align 8, !tbaa !30
  %38 = getelementptr inbounds nuw %struct.H5G_iter_lkp_t, ptr %37, i32 0, i32 1
  %39 = load ptr, ptr %38, align 8, !tbaa !51
  %40 = icmp ne ptr %39, null
  br i1 %40, label %41, label %68

41:                                               ; preds = %36
  %42 = load ptr, ptr %7, align 8, !tbaa !8
  %43 = load ptr, ptr %8, align 8, !tbaa !30
  %44 = getelementptr inbounds nuw %struct.H5G_iter_lkp_t, ptr %43, i32 0, i32 1
  %45 = load ptr, ptr %44, align 8, !tbaa !51
  %46 = call ptr @H5O_msg_copy(i32 noundef 6, ptr noundef %42, ptr noundef %45)
  %47 = icmp eq ptr null, %46
  br i1 %47, label %48, label %67

48:                                               ; preds = %41
  br label %49

49:                                               ; preds = %48
  br label %50

50:                                               ; preds = %49
  br label %51

51:                                               ; preds = %50
  %52 = load i64, ptr @H5E_SYM_g, align 8, !tbaa !16
  %53 = load i64, ptr @H5E_CANTCOPY_g, align 8, !tbaa !16
  %54 = call i32 (ptr, ptr, i32, i64, i64, ptr, ...) @H5E_printf_stack(ptr noundef @.str, ptr noundef @__func__.H5G__compact_lookup_cb, i32 noundef 419, i64 noundef %52, i64 noundef %53, ptr noundef @.str.8)
  br label %55

55:                                               ; preds = %51
  br label %56

56:                                               ; preds = %55
  store i8 1, ptr %10, align 1, !tbaa !12
  %57 = load i8, ptr %10, align 1, !tbaa !12, !range !14, !noundef !15
  %58 = trunc i8 %57 to i1
  %59 = zext i1 %58 to i8
  store i8 %59, ptr %10, align 1, !tbaa !12
  br label %60

60:                                               ; preds = %56
  br label %61

61:                                               ; preds = %60
  br label %62

62:                                               ; preds = %61
  store i32 -1, ptr %9, align 4, !tbaa !10
  br label %76

63:                                               ; No predecessors!
  br label %64

64:                                               ; preds = %63
  br label %65

65:                                               ; preds = %64
  br label %66

66:                                               ; preds = %65
  br label %67

67:                                               ; preds = %66, %41
  br label %68

68:                                               ; preds = %67, %36
  %69 = load ptr, ptr %8, align 8, !tbaa !30
  %70 = getelementptr inbounds nuw %struct.H5G_iter_lkp_t, ptr %69, i32 0, i32 2
  %71 = load ptr, ptr %70, align 8, !tbaa !52
  store i8 1, ptr %71, align 1, !tbaa !12
  br label %72

72:                                               ; preds = %68
  store i32 1, ptr %9, align 4, !tbaa !10
  br label %76

73:                                               ; No predecessors!
  br label %74

74:                                               ; preds = %73
  br label %75

75:                                               ; preds = %74, %27
  br label %76

76:                                               ; preds = %75, %72, %62
  br label %77

77:                                               ; preds = %76, %19
  %78 = load i32, ptr %9, align 4, !tbaa !10
  call void @llvm.lifetime.end.p0(i64 1, ptr %10) #8
  call void @llvm.lifetime.end.p0(i64 4, ptr %9) #8
  call void @llvm.lifetime.end.p0(i64 8, ptr %8) #8
  call void @llvm.lifetime.end.p0(i64 8, ptr %7) #8
  ret i32 %78
}