; Function Attrs: nounwind uwtable
define internal range(i32 -1, 2) i32 @H5G__compact_lookup_cb(ptr noundef %0, i32 %1, ptr noundef readonly captures(none) %2) #0 {
  %4 = load i8, ptr @H5G_init_g, align 1, !tbaa !3, !range !7, !noundef !8
  %5 = trunc nuw i8 %4 to i1
  %6 = load i8, ptr @H5_libterm_g, align 1, !range !7
  %7 = trunc nuw i8 %6 to i1
  %8 = xor i1 %7, true
  %9 = select i1 %5, i1 true, i1 %8
  br i1 %9, label %10, label %29, !prof !9

10:                                               ; preds = %3
  %11 = getelementptr inbounds nuw i8, ptr %0, i64 24
  %12 = load ptr, ptr %11, align 8, !tbaa !17
  %13 = load ptr, ptr %2, align 8, !tbaa !37
  %14 = tail call i32 @strcmp(ptr noundef nonnull dereferenceable(1) %12, ptr noundef nonnull dereferenceable(1) %13) #9
  %15 = icmp eq i32 %14, 0
  br i1 %15, label %16, label %29

16:                                               ; preds = %10
  %17 = getelementptr inbounds nuw i8, ptr %2, i64 8
  %18 = load ptr, ptr %17, align 8, !tbaa !40
  %.not = icmp eq ptr %18, null
  br i1 %.not, label %26, label %19

19:                                               ; preds = %16
  %20 = tail call ptr @H5O_msg_copy(i32 noundef 6, ptr noundef nonnull %0, ptr noundef nonnull %18) #8
  %21 = icmp eq ptr %20, null
  br i1 %21, label %22, label %26

22:                                               ; preds = %19
  %23 = load i64, ptr @H5E_SYM_g, align 8, !tbaa !10
  %24 = load i64, ptr @H5E_CANTCOPY_g, align 8, !tbaa !10
  %25 = tail call i32 (ptr, ptr, i32, i64, i64, ptr, ...) @H5E_printf_stack(ptr noundef nonnull @.str, ptr noundef nonnull @__func__.H5G__compact_lookup_cb, i32 noundef 419, i64 noundef %23, i64 noundef %24, ptr noundef nonnull @.str.8) #8
  br label %29

26:                                               ; preds = %19, %16
  %27 = getelementptr inbounds nuw i8, ptr %2, i64 16
  %28 = load ptr, ptr %27, align 8, !tbaa !41
  store i8 1, ptr %28, align 1, !tbaa !3
  br label %29

29:                                               ; preds = %22, %26, %10, %3
  %.0 = phi i32 [ -1, %22 ], [ 1, %26 ], [ 0, %10 ], [ 0, %3 ]
  ret i32 %.0
}